target datalayout = "e-m:e-p270:32:32-p271:32:32-p272:64:64-i64:64-i128:128-f80:128-n8:16:32:64-S128"
target triple = "x86_64-pc-linux-gnu"

%struct.SDL_PixelFormatDetails = type { i32, i8, i8, [2 x i8], i32, i32, i32, i32, i8, i8, i8, i8, i8, i8, i8, i8 }
%struct.SDL_Palette = type { i32, ptr, i32, i32 }
%struct.SDL_Color = type { i8, i8, i8, i8 }

@.str.66 = private unnamed_addr constant [26 x i8] c"Parameter '%s' is invalid\00", align 1
@.str.68 = private unnamed_addr constant [7 x i8] c"format\00", align 1
@.str.69 = private unnamed_addr constant [8 x i8] c"palette\00", align 1

; Function Attrs: nounwind uwtable
define hidden zeroext i8 @SDL_FindColor(ptr noundef %0, i8 noundef zeroext %1, i8 noundef zeroext %2, i8 noundef zeroext %3, i8 noundef zeroext %4) #0 {
  %6 = alloca ptr, align 8
  %7 = alloca i8, align 1
  %8 = alloca i8, align 1
  %9 = alloca i8, align 1
  %10 = alloca i8, align 1
  %11 = alloca i32, align 4
  %12 = alloca i32, align 4
  %13 = alloca i32, align 4
  %14 = alloca i32, align 4
  %15 = alloca i32, align 4
  %16 = alloca i32, align 4
  %17 = alloca i32, align 4
  %18 = alloca i8, align 1
  store ptr %0, ptr %6, align 8
  store i8 %1, ptr %7, align 1
  store i8 %2, ptr %8, align 1
  store i8 %3, ptr %9, align 1
  store i8 %4, ptr %10, align 1
  call void @llvm.lifetime.start.p0(i64 4, ptr %11) #7
  call void @llvm.lifetime.start.p0(i64 4, ptr %12) #7
  call void @llvm.lifetime.start.p0(i64 4, ptr %13) #7
  call void @llvm.lifetime.start.p0(i64 4, ptr %14) #7
  call void @llvm.lifetime.start.p0(i64 4, ptr %15) #7
  call void @llvm.lifetime.start.p0(i64 4, ptr %16) #7
  call void @llvm.lifetime.start.p0(i64 4, ptr %17) #7
  call void @llvm.lifetime.start.p0(i64 1, ptr %18) #7
  store i8 0, ptr %18, align 1
  store i32 -1, ptr %11, align 4
  store i32 0, ptr %17, align 4
  br label %19

19:                                               ; preds = %101, %5
  %20 = load i32, ptr %17, align 4
  %21 = load ptr, ptr %6, align 8
  %22 = getelementptr inbounds nuw %struct.SDL_Palette, ptr %21, i32 0, i32 0
  %23 = load i32, ptr %22, align 8
  %24 = icmp slt i32 %20, %23
  br i1 %24, label %25, label %104

25:                                               ; preds = %19
  %26 = load ptr, ptr %6, align 8
  %27 = getelementptr inbounds nuw %struct.SDL_Palette, ptr %26, i32 0, i32 1
  %28 = load ptr, ptr %27, align 8
  %29 = load i32, ptr %17, align 4
  %30 = sext i32 %29 to i64
  %31 = getelementptr inbounds %struct.SDL_Color, ptr %28, i64 %30
  %32 = getelementptr inbounds nuw %struct.SDL_Color, ptr %31, i32 0, i32 0
  %33 = load i8, ptr %32, align 1
  %34 = zext i8 %33 to i32
  %35 = load i8, ptr %7, align 1
  %36 = zext i8 %35 to i32
  %37 = sub nsw i32 %34, %36
  store i32 %37, ptr %13, align 4
  %38 = load ptr, ptr %6, align 8
  %39 = getelementptr inbounds nuw %struct.SDL_Palette, ptr %38, i32 0, i32 1
  %40 = load ptr, ptr %39, align 8
  %41 = load i32, ptr %17, align 4
  %42 = sext i32 %41 to i64
  %43 = getelementptr inbounds %struct.SDL_Color, ptr %40, i64 %42
  %44 = getelementptr inbounds nuw %struct.SDL_Color, ptr %43, i32 0, i32 1
  %45 = load i8, ptr %44, align 1
  %46 = zext i8 %45 to i32
  %47 = load i8, ptr %8, align 1
  %48 = zext i8 %47 to i32
  %49 = sub nsw i32 %46, %48
  store i32 %49, ptr %14, align 4
  %50 = load ptr, ptr %6, align 8
  %51 = getelementptr inbounds nuw %struct.SDL_Palette, ptr %50, i32 0, i32 1
  %52 = load ptr, ptr %51, align 8
  %53 = load i32, ptr %17, align 4
  %54 = sext i32 %53 to i64
  %55 = getelementptr inbounds %struct.SDL_Color, ptr %52, i64 %54
  %56 = getelementptr inbounds nuw %struct.SDL_Color, ptr %55, i32 0, i32 2
  %57 = load i8, ptr %56, align 1
  %58 = zext i8 %57 to i32
  %59 = load i8, ptr %9, align 1
  %60 = zext i8 %59 to i32
  %61 = sub nsw i32 %58, %60
  store i32 %61, ptr %15, align 4
  %62 = load ptr, ptr %6, align 8
  %63 = getelementptr inbounds nuw %struct.SDL_Palette, ptr %62, i32 0, i32 1
  %64 = load ptr, ptr %63, align 8
  %65 = load i32, ptr %17, align 4
  %66 = sext i32 %65 to i64
  %67 = getelementptr inbounds %struct.SDL_Color, ptr %64, i64 %66
  %68 = getelementptr inbounds nuw %struct.SDL_Color, ptr %67, i32 0, i32 3
  %69 = load i8, ptr %68, align 1
  %70 = zext i8 %69 to i32
  %71 = load i8, ptr %10, align 1
  %72 = zext i8 %71 to i32
  %73 = sub nsw i32 %70, %72
  store i32 %73, ptr %16, align 4
  %74 = load i32, ptr %13, align 4
  %75 = load i32, ptr %13, align 4
  %76 = mul nsw i32 %74, %75
  %77 = load i32, ptr %14, align 4
  %78 = load i32, ptr %14, align 4
  %79 = mul nsw i32 %77, %78
  %80 = add nsw i32 %76, %79
  %81 = load i32, ptr %15, align 4
  %82 = load i32, ptr %15, align 4
  %83 = mul nsw i32 %81, %82
  %84 = add nsw i32 %80, %83
  %85 = load i32, ptr %16, align 4
  %86 = load i32, ptr %16, align 4
  %87 = mul nsw i32 %85, %86
  %88 = add nsw i32 %84, %87
  store i32 %88, ptr %12, align 4
  %89 = load i32, ptr %12, align 4
  %90 = load i32, ptr %11, align 4
  %91 = icmp ult i32 %89, %90
  br i1 %91, label %92, label %100

92:                                               ; preds = %25
  %93 = load i32, ptr %17, align 4
  %94 = trunc i32 %93 to i8
  store i8 %94, ptr %18, align 1
  %95 = load i32, ptr %12, align 4
  %96 = icmp eq i32 %95, 0
  br i1 %96, label %97, label %98

97:                                               ; preds = %92
  br label %104

98:                                               ; preds = %92
  %99 = load i32, ptr %12, align 4
  store i32 %99, ptr %11, align 4
  br label %100

100:                                              ; preds = %98, %25
  br label %101

101:                                              ; preds = %100
  %102 = load i32, ptr %17, align 4
  %103 = add nsw i32 %102, 1
  store i32 %103, ptr %17, align 4
  br label %19, !llvm.loop !15

104:                                              ; preds = %97, %19
  %105 = load i8, ptr %18, align 1
  call void @llvm.lifetime.end.p0(i64 1, ptr %18) #7
  call void @llvm.lifetime.end.p0(i64 4, ptr %17) #7
  call void @llvm.lifetime.end.p0(i64 4, ptr %16) #7
  call void @llvm.lifetime.end.p0(i64 4, ptr %15) #7
  call void @llvm.lifetime.end.p0(i64 4, ptr %14) #7
  call void @llvm.lifetime.end.p0(i64 4, ptr %13) #7
  call void @llvm.lifetime.end.p0(i64 4, ptr %12) #7
  call void @llvm.lifetime.end.p0(i64 4, ptr %11) #7
  ret i8 %105
}

; Function Attrs: nounwind uwtable
define hidden i32 @SDL_MapRGBA_REAL(ptr noundef %0, ptr noundef %1, i8 noundef zeroext %2, i8 noundef zeroext %3, i8 noundef zeroext %4, i8 noundef zeroext %5) #0 {
  %7 = alloca i32, align 4
  %8 = alloca ptr, align 8
  %9 = alloca ptr, align 8
  %10 = alloca i8, align 1
  %11 = alloca i8, align 1
  %12 = alloca i8, align 1
  %13 = alloca i8, align 1
  store ptr %0, ptr %8, align 8
  store ptr %1, ptr %9, align 8
  store i8 %2, ptr %10, align 1
  store i8 %3, ptr %11, align 1
  store i8 %4, ptr %12, align 1
  store i8 %5, ptr %13, align 1
  %14 = load ptr, ptr %8, align 8
  %15 = icmp ne ptr %14, null
  br i1 %15, label %18, label %16

16:                                               ; preds = %6
  %17 = call zeroext i1 (ptr, ...) @SDL_SetError_REAL(ptr noundef @.str.66, ptr noundef @.str.68)
  store i32 0, ptr %7, align 4
  br label %208

18:                                               ; preds = %6
  %19 = load ptr, ptr %8, align 8
  %20 = getelementptr inbounds nuw %struct.SDL_PixelFormatDetails, ptr %19, i32 0, i32 0
  %21 = load i32, ptr %20, align 4
  %22 = icmp ne i32 %21, 0
  br i1 %22, label %23, label %30

23:                                               ; preds = %18
  %24 = load ptr, ptr %8, align 8
  %25 = getelementptr inbounds nuw %struct.SDL_PixelFormatDetails, ptr %24, i32 0, i32 0
  %26 = load i32, ptr %25, align 4
  %27 = lshr i32 %26, 28
  %28 = and i32 %27, 15
  %29 = icmp ne i32 %28, 1
  br i1 %29, label %71, label %30

30:                                               ; preds = %23, %18
  %31 = load ptr, ptr %8, align 8
  %32 = getelementptr inbounds nuw %struct.SDL_PixelFormatDetails, ptr %31, i32 0, i32 0
  %33 = load i32, ptr %32, align 4
  %34 = lshr i32 %33, 24
  %35 = and i32 %34, 15
  %36 = icmp eq i32 %35, 1
  br i1 %36, label %58, label %37

37:                                               ; preds = %30
  %38 = load ptr, ptr %8, align 8
  %39 = getelementptr inbounds nuw %struct.SDL_PixelFormatDetails, ptr %38, i32 0, i32 0
  %40 = load i32, ptr %39, align 4
  %41 = lshr i32 %40, 24
  %42 = and i32 %41, 15
  %43 = icmp eq i32 %42, 12
  br i1 %43, label %58, label %44

44:                                               ; preds = %37
  %45 = load ptr, ptr %8, align 8
  %46 = getelementptr inbounds nuw %struct.SDL_PixelFormatDetails, ptr %45, i32 0, i32 0
  %47 = load i32, ptr %46, align 4
  %48 = lshr i32 %47, 24
  %49 = and i32 %48, 15
  %50 = icmp eq i32 %49, 2
  br i1 %50, label %58, label %51

51:                                               ; preds = %44
  %52 = load ptr, ptr %8, align 8
  %53 = getelementptr inbounds nuw %struct.SDL_PixelFormatDetails, ptr %52, i32 0, i32 0
  %54 = load i32, ptr %53, align 4
  %55 = lshr i32 %54, 24
  %56 = and i32 %55, 15
  %57 = icmp eq i32 %56, 3
  br i1 %57, label %58, label %71

58:                                               ; preds = %51, %44, %37, %30
  %59 = load ptr, ptr %9, align 8
  %60 = icmp ne ptr %59, null
  br i1 %60, label %63, label %61

61:                                               ; preds = %58
  %62 = call zeroext i1 (ptr, ...) @SDL_SetError_REAL(ptr noundef @.str.66, ptr noundef @.str.69)
  store i32 0, ptr %7, align 4
  br label %208

63:                                               ; preds = %58
  %64 = load ptr, ptr %9, align 8
  %65 = load i8, ptr %10, align 1
  %66 = load i8, ptr %11, align 1
  %67 = load i8, ptr %12, align 1
  %68 = load i8, ptr %13, align 1
  %69 = call zeroext i8 @SDL_FindColor(ptr noundef %64, i8 noundef zeroext %65, i8 noundef zeroext %66, i8 noundef zeroext %67, i8 noundef zeroext %68)
  %70 = zext i8 %69 to i32
  store i32 %70, ptr %7, align 4
  br label %208

71:                                               ; preds = %51, %23
  %72 = load ptr, ptr %8, align 8
  %73 = getelementptr inbounds nuw %struct.SDL_PixelFormatDetails, ptr %72, i32 0, i32 0
  %74 = load i32, ptr %73, align 4
  %75 = icmp ne i32 %74, 0
  br i1 %75, label %76, label %83

76:                                               ; preds = %71
  %77 = load ptr, ptr %8, align 8
  %78 = getelementptr inbounds nuw %struct.SDL_PixelFormatDetails, ptr %77, i32 0, i32 0
  %79 = load i32, ptr %78, align 4
  %80 = lshr i32 %79, 28
  %81 = and i32 %80, 15
  %82 = icmp ne i32 %81, 1
  br i1 %82, label %148, label %83

83:                                               ; preds = %76, %71
  %84 = load ptr, ptr %8, align 8
  %85 = getelementptr inbounds nuw %struct.SDL_PixelFormatDetails, ptr %84, i32 0, i32 0
  %86 = load i32, ptr %85, align 4
  %87 = lshr i32 %86, 24
  %88 = and i32 %87, 15
  %89 = icmp eq i32 %88, 6
  br i1 %89, label %90, label %148

90:                                               ; preds = %83
  %91 = load ptr, ptr %8, align 8
  %92 = getelementptr inbounds nuw %struct.SDL_PixelFormatDetails, ptr %91, i32 0, i32 0
  %93 = load i32, ptr %92, align 4
  %94 = lshr i32 %93, 16
  %95 = and i32 %94, 15
  %96 = icmp eq i32 %95, 7
  br i1 %96, label %97, label %148

97:                                               ; preds = %90
  %98 = load i8, ptr %10, align 1
  %99 = zext i8 %98 to i64
  %100 = getelementptr inbounds nuw [256 x i16], ptr @SDL_expand_byte_10, i64 0, i64 %99
  %101 = load i16, ptr %100, align 2
  %102 = zext i16 %101 to i32
  %103 = load ptr, ptr %8, align 8
  %104 = getelementptr inbounds nuw %struct.SDL_PixelFormatDetails, ptr %103, i32 0, i32 12
  %105 = load i8, ptr %104, align 4
  %106 = zext i8 %105 to i32
  %107 = shl i32 %102, %106
  %108 = load i8, ptr %11, align 1
  %109 = zext i8 %108 to i64
  %110 = getelementptr inbounds nuw [256 x i16], ptr @SDL_expand_byte_10, i64 0, i64 %109
  %111 = load i16, ptr %110, align 2
  %112 = zext i16 %111 to i32
  %113 = load ptr, ptr %8, align 8
  %114 = getelementptr inbounds nuw %struct.SDL_PixelFormatDetails, ptr %113, i32 0, i32 13
  %115 = load i8, ptr %114, align 1
  %116 = zext i8 %115 to i32
  %117 = shl i32 %112, %116
  %118 = or i32 %107, %117
  %119 = load i8, ptr %12, align 1
  %120 = zext i8 %119 to i64
  %121 = getelementptr inbounds nuw [256 x i16], ptr @SDL_expand_byte_10, i64 0, i64 %120
  %122 = load i16, ptr %121, align 2
  %123 = zext i16 %122 to i32
  %124 = load ptr, ptr %8, align 8
  %125 = getelementptr inbounds nuw %struct.SDL_PixelFormatDetails, ptr %124, i32 0, i32 14
  %126 = load i8, ptr %125, align 2
  %127 = zext i8 %126 to i32
  %128 = shl i32 %123, %127
  %129 = or i32 %118, %128
  %130 = load i8, ptr %13, align 1
  %131 = zext i8 %130 to i32
  %132 = load ptr, ptr %8, align 8
  %133 = getelementptr inbounds nuw %struct.SDL_PixelFormatDetails, ptr %132, i32 0, i32 11
  %134 = load i8, ptr %133, align 1
  %135 = zext i8 %134 to i32
  %136 = sub nsw i32 8, %135
  %137 = ashr i32 %131, %136
  %138 = load ptr, ptr %8, align 8
  %139 = getelementptr inbounds nuw %struct.SDL_PixelFormatDetails, ptr %138, i32 0, i32 15
  %140 = load i8, ptr %139, align 1
  %141 = zext i8 %140 to i32
  %142 = shl i32 %137, %141
  %143 = load ptr, ptr %8, align 8
  %144 = getelementptr inbounds nuw %struct.SDL_PixelFormatDetails, ptr %143, i32 0, i32 7
  %145 = load i32, ptr %144, align 4
  %146 = and i32 %142, %145
  %147 = or i32 %129, %146
  store i32 %147, ptr %7, align 4
  br label %208

148:                                              ; preds = %90, %83, %76
  %149 = load i8, ptr %10, align 1
  %150 = zext i8 %149 to i32
  %151 = load ptr, ptr %8, align 8
  %152 = getelementptr inbounds nuw %struct.SDL_PixelFormatDetails, ptr %151, i32 0, i32 8
  %153 = load i8, ptr %152, align 4
  %154 = zext i8 %153 to i32
  %155 = sub nsw i32 8, %154
  %156 = ashr i32 %150, %155
  %157 = load ptr, ptr %8, align 8
  %158 = getelementptr inbounds nuw %struct.SDL_PixelFormatDetails, ptr %157, i32 0, i32 12
  %159 = load i8, ptr %158, align 4
  %160 = zext i8 %159 to i32
  %161 = shl i32 %156, %160
  %162 = load i8, ptr %11, align 1
  %163 = zext i8 %162 to i32
  %164 = load ptr, ptr %8, align 8
  %165 = getelementptr inbounds nuw %struct.SDL_PixelFormatDetails, ptr %164, i32 0, i32 9
  %166 = load i8, ptr %165, align 1
  %167 = zext i8 %166 to i32
  %168 = sub nsw i32 8, %167
  %169 = ashr i32 %163, %168
  %170 = load ptr, ptr %8, align 8
  %171 = getelementptr inbounds nuw %struct.SDL_PixelFormatDetails, ptr %170, i32 0, i32 13
  %172 = load i8, ptr %171, align 1
  %173 = zext i8 %172 to i32
  %174 = shl i32 %169, %173
  %175 = or i32 %161, %174
  %176 = load i8, ptr %12, align 1
  %177 = zext i8 %176 to i32
  %178 = load ptr, ptr %8, align 8
  %179 = getelementptr inbounds nuw %struct.SDL_PixelFormatDetails, ptr %178, i32 0, i32 10
  %180 = load i8, ptr %179, align 2
  %181 = zext i8 %180 to i32
  %182 = sub nsw i32 8, %181
  %183 = ashr i32 %177, %182
  %184 = load ptr, ptr %8, align 8
  %185 = getelementptr inbounds nuw %struct.SDL_PixelFormatDetails, ptr %184, i32 0, i32 14
  %186 = load i8, ptr %185, align 2
  %187 = zext i8 %186 to i32
  %188 = shl i32 %183, %187
  %189 = or i32 %175, %188
  %190 = load i8, ptr %13, align 1
  %191 = zext i8 %190 to i32
  %192 = load ptr, ptr %8, align 8
  %193 = getelementptr inbounds nuw %struct.SDL_PixelFormatDetails, ptr %192, i32 0, i32 11
  %194 = load i8, ptr %193, align 1
  %195 = zext i8 %194 to i32
  %196 = sub nsw i32 8, %195
  %197 = ashr i32 %191, %196
  %198 = load ptr, ptr %8, align 8
  %199 = getelementptr inbounds nuw %struct.SDL_PixelFormatDetails, ptr %198, i32 0, i32 15
  %200 = load i8, ptr %199, align 1
  %201 = zext i8 %200 to i32
  %202 = shl i32 %197, %201
  %203 = load ptr, ptr %8, align 8
  %204 = getelementptr inbounds nuw %struct.SDL_PixelFormatDetails, ptr %203, i32 0, i32 7
  %205 = load i32, ptr %204, align 4
  %206 = and i32 %202, %205
  %207 = or i32 %189, %206
  store i32 %207, ptr %7, align 4
  br label %208

208:                                              ; preds = %148, %97, %63, %61, %16
  %209 = load i32, ptr %7, align 4
  ret i32 %209
}