; Function Attrs: nounwind uwtable
define hidden i32 @SDL_MapRGBA_REAL(ptr noundef readonly captures(address_is_null) %0, ptr noundef readonly captures(address_is_null) %1, i8 noundef zeroext %2, i8 noundef zeroext %3, i8 noundef zeroext %4, i8 noundef zeroext %5) local_unnamed_addr #1 {
  %.not = icmp eq ptr %0, null
  br i1 %.not, label %7, label %9

7:                                                ; preds = %6
  %8 = tail call zeroext i1 (ptr, ...) @SDL_SetError_REAL(ptr noundef nonnull @.str.66, ptr noundef nonnull @.str.68) #15
  br label %SDL_FindColor.exit

9:                                                ; preds = %6
  %10 = load i32, ptr %0, align 4
  %.not45 = icmp eq i32 %10, 0
  %.mask = and i32 %10, -268435456
  %.not46 = icmp eq i32 %.mask, 268435456
  %or.cond = or i1 %.not45, %.not46
  br i1 %or.cond, label %11, label %99

11:                                               ; preds = %9
  %12 = lshr i32 %10, 24
  %13 = and i32 %12, 15
  switch i32 %13, label %56 [
    i32 1, label %14
    i32 12, label %14
    i32 2, label %14
    i32 3, label %14
  ]

14:                                               ; preds = %11, %11, %11, %11
  %.not47 = icmp eq ptr %1, null
  br i1 %.not47, label %15, label %17

15:                                               ; preds = %14
  %16 = tail call zeroext i1 (ptr, ...) @SDL_SetError_REAL(ptr noundef nonnull @.str.66, ptr noundef nonnull @.str.69) #15
  br label %SDL_FindColor.exit

17:                                               ; preds = %14
  %18 = load i32, ptr %1, align 8
  %19 = icmp sgt i32 %18, 0
  br i1 %19, label %.lr.ph.i, label %SDL_FindColor.exit

.lr.ph.i:                                         ; preds = %17
  %20 = getelementptr inbounds nuw i8, ptr %1, i64 8
  %21 = load ptr, ptr %20, align 8
  %22 = zext i8 %2 to i32
  %23 = zext i8 %3 to i32
  %24 = zext i8 %4 to i32
  %25 = zext i8 %5 to i32
  %wide.trip.count.i = zext nneg i32 %18 to i64
  br label %26

26:                                               ; preds = %54, %.lr.ph.i
  %indvars.iv.i = phi i64 [ 0, %.lr.ph.i ], [ %indvars.iv.next.i, %54 ]
  %.034.i = phi i8 [ 0, %.lr.ph.i ], [ %.2.i, %54 ]
  %.02932.i = phi i32 [ -1, %.lr.ph.i ], [ %.130.i, %54 ]
  %27 = getelementptr inbounds nuw %struct.SDL_Color, ptr %21, i64 %indvars.iv.i
  %28 = load i8, ptr %27, align 1
  %29 = zext i8 %28 to i32
  %30 = sub nsw i32 %29, %22
  %31 = getelementptr inbounds nuw i8, ptr %27, i64 1
  %32 = load i8, ptr %31, align 1
  %33 = zext i8 %32 to i32
  %34 = sub nsw i32 %33, %23
  %35 = getelementptr inbounds nuw i8, ptr %27, i64 2
  %36 = load i8, ptr %35, align 1
  %37 = zext i8 %36 to i32
  %38 = sub nsw i32 %37, %24
  %39 = getelementptr inbounds nuw i8, ptr %27, i64 3
  %40 = load i8, ptr %39, align 1
  %41 = zext i8 %40 to i32
  %42 = sub nsw i32 %41, %25
  %43 = mul nsw i32 %30, %30
  %44 = mul nsw i32 %34, %34
  %45 = add nuw nsw i32 %44, %43
  %46 = mul nsw i32 %38, %38
  %47 = add nuw nsw i32 %45, %46
  %48 = mul nsw i32 %42, %42
  %49 = add nuw nsw i32 %47, %48
  %50 = icmp ult i32 %49, %.02932.i
  br i1 %50, label %51, label %54

51:                                               ; preds = %26
  %52 = trunc i64 %indvars.iv.i to i8
  %53 = icmp eq i32 %49, 0
  br i1 %53, label %SDL_FindColor.exit.loopexit, label %54

54:                                               ; preds = %51, %26
  %.130.i = phi i32 [ %.02932.i, %26 ], [ %49, %51 ]
  %.2.i = phi i8 [ %.034.i, %26 ], [ %52, %51 ]
  %indvars.iv.next.i = add nuw nsw i64 %indvars.iv.i, 1
  %exitcond.not.i = icmp eq i64 %indvars.iv.next.i, %wide.trip.count.i
  br i1 %exitcond.not.i, label %SDL_FindColor.exit.loopexit, label %26, !llvm.loop !13

SDL_FindColor.exit.loopexit:                      ; preds = %54, %51
  %.1.i.ph = phi i8 [ %52, %51 ], [ %.2.i, %54 ]
  %55 = zext i8 %.1.i.ph to i32
  br label %SDL_FindColor.exit

56:                                               ; preds = %11
  %57 = and i32 %10, 252641280
  %or.cond53 = icmp eq i32 %57, 101122048
  br i1 %or.cond53, label %58, label %99

58:                                               ; preds = %56
  %59 = zext i8 %2 to i64
  %60 = getelementptr inbounds nuw [256 x i16], ptr @SDL_expand_byte_10, i64 0, i64 %59
  %61 = load i16, ptr %60, align 2
  %62 = zext i16 %61 to i32
  %63 = getelementptr inbounds nuw i8, ptr %0, i64 28
  %64 = load i8, ptr %63, align 4
  %65 = zext nneg i8 %64 to i32
  %66 = shl i32 %62, %65
  %67 = zext i8 %3 to i64
  %68 = getelementptr inbounds nuw [256 x i16], ptr @SDL_expand_byte_10, i64 0, i64 %67
  %69 = load i16, ptr %68, align 2
  %70 = zext i16 %69 to i32
  %71 = getelementptr inbounds nuw i8, ptr %0, i64 29
  %72 = load i8, ptr %71, align 1
  %73 = zext nneg i8 %72 to i32
  %74 = shl i32 %70, %73
  %75 = or i32 %74, %66
  %76 = zext i8 %4 to i64
  %77 = getelementptr inbounds nuw [256 x i16], ptr @SDL_expand_byte_10, i64 0, i64 %76
  %78 = load i16, ptr %77, align 2
  %79 = zext i16 %78 to i32
  %80 = getelementptr inbounds nuw i8, ptr %0, i64 30
  %81 = load i8, ptr %80, align 2
  %82 = zext nneg i8 %81 to i32
  %83 = shl i32 %79, %82
  %84 = or i32 %75, %83
  %85 = zext i8 %5 to i32
  %86 = getelementptr inbounds nuw i8, ptr %0, i64 27
  %87 = load i8, ptr %86, align 1
  %88 = zext i8 %87 to i32
  %89 = sub nsw i32 8, %88
  %90 = lshr i32 %85, %89
  %91 = getelementptr inbounds nuw i8, ptr %0, i64 31
  %92 = load i8, ptr %91, align 1
  %93 = zext nneg i8 %92 to i32
  %94 = shl i32 %90, %93
  %95 = getelementptr inbounds nuw i8, ptr %0, i64 20
  %96 = load i32, ptr %95, align 4
  %97 = and i32 %94, %96
  %98 = or i32 %84, %97
  br label %SDL_FindColor.exit

99:                                               ; preds = %9, %56
  %100 = zext i8 %2 to i32
  %101 = getelementptr inbounds nuw i8, ptr %0, i64 24
  %102 = load i8, ptr %101, align 4
  %103 = zext i8 %102 to i32
  %104 = sub nsw i32 8, %103
  %105 = lshr i32 %100, %104
  %106 = getelementptr inbounds nuw i8, ptr %0, i64 28
  %107 = load i8, ptr %106, align 4
  %108 = zext nneg i8 %107 to i32
  %109 = shl i32 %105, %108
  %110 = zext i8 %3 to i32
  %111 = getelementptr inbounds nuw i8, ptr %0, i64 25
  %112 = load i8, ptr %111, align 1
  %113 = zext i8 %112 to i32
  %114 = sub nsw i32 8, %113
  %115 = lshr i32 %110, %114
  %116 = getelementptr inbounds nuw i8, ptr %0, i64 29
  %117 = load i8, ptr %116, align 1
  %118 = zext nneg i8 %117 to i32
  %119 = shl i32 %115, %118
  %120 = or i32 %119, %109
  %121 = zext i8 %4 to i32
  %122 = getelementptr inbounds nuw i8, ptr %0, i64 26
  %123 = load i8, ptr %122, align 2
  %124 = zext i8 %123 to i32
  %125 = sub nsw i32 8, %124
  %126 = lshr i32 %121, %125
  %127 = getelementptr inbounds nuw i8, ptr %0, i64 30
  %128 = load i8, ptr %127, align 2
  %129 = zext nneg i8 %128 to i32
  %130 = shl i32 %126, %129
  %131 = or i32 %120, %130
  %132 = zext i8 %5 to i32
  %133 = getelementptr inbounds nuw i8, ptr %0, i64 27
  %134 = load i8, ptr %133, align 1
  %135 = zext i8 %134 to i32
  %136 = sub nsw i32 8, %135
  %137 = lshr i32 %132, %136
  %138 = getelementptr inbounds nuw i8, ptr %0, i64 31
  %139 = load i8, ptr %138, align 1
  %140 = zext nneg i8 %139 to i32
  %141 = shl i32 %137, %140
  %142 = getelementptr inbounds nuw i8, ptr %0, i64 20
  %143 = load i32, ptr %142, align 4
  %144 = and i32 %141, %143
  %145 = or i32 %131, %144
  br label %SDL_FindColor.exit

SDL_FindColor.exit:                               ; preds = %17, %SDL_FindColor.exit.loopexit, %99, %58, %15, %7
  %.0 = phi i32 [ %145, %99 ], [ %98, %58 ], [ 0, %15 ], [ 0, %7 ], [ 0, %17 ], [ %55, %SDL_FindColor.exit.loopexit ]
  ret i32 %.0
}